target datalayout = "e-m:e-p270:32:32-p271:32:32-p272:64:64-i64:64-i128:128-f80:128-n8:16:32:64-S128"
target triple = "x86_64-pc-linux-gnu"

%struct.jpeg_decompress_struct = type { ptr, ptr, ptr, ptr, i32, i32, ptr, i32, i32, i32, i32, i32, i32, i32, double, i32, i32, i32, i32, i32, i32, i32, i32, i32, i32, i32, i32, i32, i32, i32, i32, i32, i32, ptr, i32, i32, i32, i32, i32, ptr, [4 x ptr], [4 x ptr], [4 x ptr], i32, ptr, i32, i32, [16 x i8], [16 x i8], [16 x i8], i32, i32, i8, i8, i8, i16, i16, i32, i8, i32, ptr, i32, i32, i32, i32, ptr, i32, [4 x ptr], i32, i32, i32, [10 x i32], i32, i32, i32, i32, i32, ptr, ptr, ptr, ptr, ptr, ptr, ptr, ptr, ptr, ptr, ptr }
%struct.jpeg_memory_mgr = type { ptr, ptr, ptr, ptr, ptr, ptr, ptr, ptr, ptr, ptr, ptr, i64, i64 }
%struct.my_diff_controller = type { %struct.jpeg_d_coef_controller, i32, i32, i32, i32, [10 x ptr], [10 x ptr], [10 x ptr] }
%struct.jpeg_d_coef_controller = type { ptr, ptr, ptr, ptr, ptr, ptr, i32, i32, i32, ptr }
%struct.jpeg_component_info = type { i32, i32, i32, i32, i32, i32, i32, i32, i32, i32, i32, i32, i32, i32, i32, i32, i32, i32, i32, ptr, ptr }

; Function Attrs: nounwind uwtable
define void @jinit_d_diff_controller(ptr noundef %0, i32 noundef %1) #0 {
  %3 = alloca ptr, align 8
  %4 = alloca i32, align 4
  %5 = alloca ptr, align 8
  %6 = alloca i32, align 4
  %7 = alloca ptr, align 8
  %8 = alloca i32, align 4
  store ptr %0, ptr %3, align 8
  store i32 %1, ptr %4, align 4
  %9 = load ptr, ptr %3, align 8
  %10 = getelementptr inbounds %struct.jpeg_decompress_struct, ptr %9, i32 0, i32 1
  %11 = load ptr, ptr %10, align 8
  %12 = getelementptr inbounds %struct.jpeg_memory_mgr, ptr %11, i32 0, i32 0
  %13 = load ptr, ptr %12, align 8
  %14 = load ptr, ptr %3, align 8
  %15 = call ptr %13(ptr noundef %14, i32 noundef 1, i64 noundef 328)
  store ptr %15, ptr %5, align 8
  %16 = load ptr, ptr %5, align 8
  %17 = load ptr, ptr %3, align 8
  %18 = getelementptr inbounds %struct.jpeg_decompress_struct, ptr %17, i32 0, i32 79
  store ptr %16, ptr %18, align 8
  %19 = load ptr, ptr %5, align 8
  %20 = getelementptr inbounds %struct.my_diff_controller, ptr %19, i32 0, i32 0
  %21 = getelementptr inbounds %struct.jpeg_d_coef_controller, ptr %20, i32 0, i32 0
  store ptr @start_input_pass, ptr %21, align 8
  %22 = load ptr, ptr %5, align 8
  %23 = getelementptr inbounds %struct.my_diff_controller, ptr %22, i32 0, i32 0
  %24 = getelementptr inbounds %struct.jpeg_d_coef_controller, ptr %23, i32 0, i32 2
  store ptr @start_output_pass, ptr %24, align 8
  store i32 0, ptr %6, align 4
  %25 = load ptr, ptr %3, align 8
  %26 = getelementptr inbounds %struct.jpeg_decompress_struct, ptr %25, i32 0, i32 44
  %27 = load ptr, ptr %26, align 8
  store ptr %27, ptr %7, align 8
  br label %28

28:                                               ; preds = %93, %2
  %29 = load i32, ptr %6, align 4
  %30 = load ptr, ptr %3, align 8
  %31 = getelementptr inbounds %struct.jpeg_decompress_struct, ptr %30, i32 0, i32 9
  %32 = load i32, ptr %31, align 8
  %33 = icmp slt i32 %29, %32
  br i1 %33, label %34, label %98

34:                                               ; preds = %28
  %35 = load ptr, ptr %3, align 8
  %36 = getelementptr inbounds %struct.jpeg_decompress_struct, ptr %35, i32 0, i32 1
  %37 = load ptr, ptr %36, align 8
  %38 = getelementptr inbounds %struct.jpeg_memory_mgr, ptr %37, i32 0, i32 2
  %39 = load ptr, ptr %38, align 8
  %40 = load ptr, ptr %3, align 8
  %41 = load ptr, ptr %7, align 8
  %42 = getelementptr inbounds %struct.jpeg_component_info, ptr %41, i32 0, i32 7
  %43 = load i32, ptr %42, align 4
  %44 = zext i32 %43 to i64
  %45 = load ptr, ptr %7, align 8
  %46 = getelementptr inbounds %struct.jpeg_component_info, ptr %45, i32 0, i32 2
  %47 = load i32, ptr %46, align 8
  %48 = sext i32 %47 to i64
  %49 = call i64 @jround_up(i64 noundef %44, i64 noundef %48)
  %50 = trunc i64 %49 to i32
  %51 = zext i32 %50 to i64
  %52 = mul i64 %51, 4
  %53 = udiv i64 %52, 1
  %54 = trunc i64 %53 to i32
  %55 = load ptr, ptr %7, align 8
  %56 = getelementptr inbounds %struct.jpeg_component_info, ptr %55, i32 0, i32 3
  %57 = load i32, ptr %56, align 4
  %58 = call ptr %39(ptr noundef %40, i32 noundef 1, i32 noundef %54, i32 noundef %57)
  %59 = load ptr, ptr %5, align 8
  %60 = getelementptr inbounds %struct.my_diff_controller, ptr %59, i32 0, i32 5
  %61 = load i32, ptr %6, align 4
  %62 = sext i32 %61 to i64
  %63 = getelementptr inbounds [10 x ptr], ptr %60, i64 0, i64 %62
  store ptr %58, ptr %63, align 8
  %64 = load ptr, ptr %3, align 8
  %65 = getelementptr inbounds %struct.jpeg_decompress_struct, ptr %64, i32 0, i32 1
  %66 = load ptr, ptr %65, align 8
  %67 = getelementptr inbounds %struct.jpeg_memory_mgr, ptr %66, i32 0, i32 2
  %68 = load ptr, ptr %67, align 8
  %69 = load ptr, ptr %3, align 8
  %70 = load ptr, ptr %7, align 8
  %71 = getelementptr inbounds %struct.jpeg_component_info, ptr %70, i32 0, i32 7
  %72 = load i32, ptr %71, align 4
  %73 = zext i32 %72 to i64
  %74 = load ptr, ptr %7, align 8
  %75 = getelementptr inbounds %struct.jpeg_component_info, ptr %74, i32 0, i32 2
  %76 = load i32, ptr %75, align 8
  %77 = sext i32 %76 to i64
  %78 = call i64 @jround_up(i64 noundef %73, i64 noundef %77)
  %79 = trunc i64 %78 to i32
  %80 = zext i32 %79 to i64
  %81 = mul i64 %80, 4
  %82 = udiv i64 %81, 1
  %83 = trunc i64 %82 to i32
  %84 = load ptr, ptr %7, align 8
  %85 = getelementptr inbounds %struct.jpeg_component_info, ptr %84, i32 0, i32 3
  %86 = load i32, ptr %85, align 4
  %87 = call ptr %68(ptr noundef %69, i32 noundef 1, i32 noundef %83, i32 noundef %86)
  %88 = load ptr, ptr %5, align 8
  %89 = getelementptr inbounds %struct.my_diff_controller, ptr %88, i32 0, i32 6
  %90 = load i32, ptr %6, align 4
  %91 = sext i32 %90 to i64
  %92 = getelementptr inbounds [10 x ptr], ptr %89, i64 0, i64 %91
  store ptr %87, ptr %92, align 8
  br label %93

93:                                               ; preds = %34
  %94 = load i32, ptr %6, align 4
  %95 = add nsw i32 %94, 1
  store i32 %95, ptr %6, align 4
  %96 = load ptr, ptr %7, align 8
  %97 = getelementptr inbounds %struct.jpeg_component_info, ptr %96, i32 1
  store ptr %97, ptr %7, align 8
  br label %28, !llvm.loop !4

98:                                               ; preds = %28
  %99 = load i32, ptr %4, align 4
  %100 = icmp ne i32 %99, 0
  br i1 %100, label %101, label %160

101:                                              ; preds = %98
  store i32 0, ptr %6, align 4
  %102 = load ptr, ptr %3, align 8
  %103 = getelementptr inbounds %struct.jpeg_decompress_struct, ptr %102, i32 0, i32 44
  %104 = load ptr, ptr %103, align 8
  store ptr %104, ptr %7, align 8
  br label %105

105:                                              ; preds = %148, %101
  %106 = load i32, ptr %6, align 4
  %107 = load ptr, ptr %3, align 8
  %108 = getelementptr inbounds %struct.jpeg_decompress_struct, ptr %107, i32 0, i32 9
  %109 = load i32, ptr %108, align 8
  %110 = icmp slt i32 %106, %109
  br i1 %110, label %111, label %153

111:                                              ; preds = %105
  %112 = load ptr, ptr %7, align 8
  %113 = getelementptr inbounds %struct.jpeg_component_info, ptr %112, i32 0, i32 3
  %114 = load i32, ptr %113, align 4
  store i32 %114, ptr %8, align 4
  %115 = load ptr, ptr %3, align 8
  %116 = getelementptr inbounds %struct.jpeg_decompress_struct, ptr %115, i32 0, i32 1
  %117 = load ptr, ptr %116, align 8
  %118 = getelementptr inbounds %struct.jpeg_memory_mgr, ptr %117, i32 0, i32 4
  %119 = load ptr, ptr %118, align 8
  %120 = load ptr, ptr %3, align 8
  %121 = load ptr, ptr %7, align 8
  %122 = getelementptr inbounds %struct.jpeg_component_info, ptr %121, i32 0, i32 7
  %123 = load i32, ptr %122, align 4
  %124 = zext i32 %123 to i64
  %125 = load ptr, ptr %7, align 8
  %126 = getelementptr inbounds %struct.jpeg_component_info, ptr %125, i32 0, i32 2
  %127 = load i32, ptr %126, align 8
  %128 = sext i32 %127 to i64
  %129 = call i64 @jround_up(i64 noundef %124, i64 noundef %128)
  %130 = trunc i64 %129 to i32
  %131 = load ptr, ptr %7, align 8
  %132 = getelementptr inbounds %struct.jpeg_component_info, ptr %131, i32 0, i32 8
  %133 = load i32, ptr %132, align 8
  %134 = zext i32 %133 to i64
  %135 = load ptr, ptr %7, align 8
  %136 = getelementptr inbounds %struct.jpeg_component_info, ptr %135, i32 0, i32 3
  %137 = load i32, ptr %136, align 4
  %138 = sext i32 %137 to i64
  %139 = call i64 @jround_up(i64 noundef %134, i64 noundef %138)
  %140 = trunc i64 %139 to i32
  %141 = load i32, ptr %8, align 4
  %142 = call ptr %119(ptr noundef %120, i32 noundef 1, i32 noundef 0, i32 noundef %130, i32 noundef %140, i32 noundef %141)
  %143 = load ptr, ptr %5, align 8
  %144 = getelementptr inbounds %struct.my_diff_controller, ptr %143, i32 0, i32 7
  %145 = load i32, ptr %6, align 4
  %146 = sext i32 %145 to i64
  %147 = getelementptr inbounds [10 x ptr], ptr %144, i64 0, i64 %146
  store ptr %142, ptr %147, align 8
  br label %148

148:                                              ; preds = %111
  %149 = load i32, ptr %6, align 4
  %150 = add nsw i32 %149, 1
  store i32 %150, ptr %6, align 4
  %151 = load ptr, ptr %7, align 8
  %152 = getelementptr inbounds %struct.jpeg_component_info, ptr %151, i32 1
  store ptr %152, ptr %7, align 8
  br label %105, !llvm.loop !6

153:                                              ; preds = %105
  %154 = load ptr, ptr %5, align 8
  %155 = getelementptr inbounds %struct.my_diff_controller, ptr %154, i32 0, i32 0
  %156 = getelementptr inbounds %struct.jpeg_d_coef_controller, ptr %155, i32 0, i32 1
  store ptr @consume_data, ptr %156, align 8
  %157 = load ptr, ptr %5, align 8
  %158 = getelementptr inbounds %struct.my_diff_controller, ptr %157, i32 0, i32 0
  %159 = getelementptr inbounds %struct.jpeg_d_coef_controller, ptr %158, i32 0, i32 3
  store ptr @output_data, ptr %159, align 8
  br label %170

160:                                              ; preds = %98
  %161 = load ptr, ptr %5, align 8
  %162 = getelementptr inbounds %struct.my_diff_controller, ptr %161, i32 0, i32 0
  %163 = getelementptr inbounds %struct.jpeg_d_coef_controller, ptr %162, i32 0, i32 1
  store ptr @dummy_consume_data, ptr %163, align 8
  %164 = load ptr, ptr %5, align 8
  %165 = getelementptr inbounds %struct.my_diff_controller, ptr %164, i32 0, i32 0
  %166 = getelementptr inbounds %struct.jpeg_d_coef_controller, ptr %165, i32 0, i32 3
  store ptr @decompress_data, ptr %166, align 8
  %167 = load ptr, ptr %5, align 8
  %168 = getelementptr inbounds %struct.my_diff_controller, ptr %167, i32 0, i32 7
  %169 = getelementptr inbounds [10 x ptr], ptr %168, i64 0, i64 0
  store ptr null, ptr %169, align 8
  br label %170

170:                                              ; preds = %160, %153
  ret void
}