; Function Attrs: nounwind uwtable
define void @jinit_d_diff_controller(ptr noundef %0, i32 noundef %1) local_unnamed_addr #0 {
  %3 = getelementptr inbounds nuw i8, ptr %0, i64 8
  %4 = load ptr, ptr %3, align 8
  %5 = load ptr, ptr %4, align 8
  %6 = tail call ptr %5(ptr noundef %0, i32 noundef 1, i64 noundef 328) #5
  %7 = getelementptr inbounds nuw i8, ptr %0, i64 560
  store ptr %6, ptr %7, align 8
  store ptr @start_input_pass, ptr %6, align 8
  %8 = getelementptr inbounds nuw i8, ptr %6, i64 16
  store ptr @start_output_pass, ptr %8, align 8
  %9 = getelementptr inbounds nuw i8, ptr %0, i64 304
  %10 = getelementptr inbounds nuw i8, ptr %0, i64 56
  %11 = load i32, ptr %10, align 8
  %12 = icmp sgt i32 %11, 0
  br i1 %12, label %.lr.ph, label %._crit_edge.thread

.lr.ph:                                           ; preds = %2
  %13 = load ptr, ptr %9, align 8
  %14 = getelementptr inbounds nuw i8, ptr %6, i64 88
  %15 = getelementptr inbounds nuw i8, ptr %6, i64 168
  br label %16

16:                                               ; preds = %.lr.ph, %16
  %indvars.iv = phi i64 [ 0, %.lr.ph ], [ %indvars.iv.next, %16 ]
  %.04548 = phi ptr [ %13, %.lr.ph ], [ %44, %16 ]
  %17 = load ptr, ptr %3, align 8
  %18 = getelementptr inbounds nuw i8, ptr %17, i64 16
  %19 = load ptr, ptr %18, align 8
  %20 = getelementptr inbounds nuw i8, ptr %.04548, i64 28
  %21 = load i32, ptr %20, align 4
  %22 = zext i32 %21 to i64
  %23 = getelementptr inbounds nuw i8, ptr %.04548, i64 8
  %24 = load i32, ptr %23, align 8
  %25 = sext i32 %24 to i64
  %26 = tail call i64 @jround_up(i64 noundef %22, i64 noundef %25) #5
  %.tr = trunc i64 %26 to i32
  %27 = shl i32 %.tr, 2
  %28 = getelementptr inbounds nuw i8, ptr %.04548, i64 12
  %29 = load i32, ptr %28, align 4
  %30 = tail call ptr %19(ptr noundef nonnull %0, i32 noundef 1, i32 noundef %27, i32 noundef %29) #5
  %31 = getelementptr inbounds nuw [10 x ptr], ptr %14, i64 0, i64 %indvars.iv
  store ptr %30, ptr %31, align 8
  %32 = load ptr, ptr %3, align 8
  %33 = getelementptr inbounds nuw i8, ptr %32, i64 16
  %34 = load ptr, ptr %33, align 8
  %35 = load i32, ptr %20, align 4
  %36 = zext i32 %35 to i64
  %37 = load i32, ptr %23, align 8
  %38 = sext i32 %37 to i64
  %39 = tail call i64 @jround_up(i64 noundef %36, i64 noundef %38) #5
  %.tr47 = trunc i64 %39 to i32
  %40 = shl i32 %.tr47, 2
  %41 = load i32, ptr %28, align 4
  %42 = tail call ptr %34(ptr noundef nonnull %0, i32 noundef 1, i32 noundef %40, i32 noundef %41) #5
  %43 = getelementptr inbounds nuw [10 x ptr], ptr %15, i64 0, i64 %indvars.iv
  store ptr %42, ptr %43, align 8
  %indvars.iv.next = add nuw nsw i64 %indvars.iv, 1
  %44 = getelementptr inbounds nuw i8, ptr %.04548, i64 96
  %45 = load i32, ptr %10, align 8
  %46 = sext i32 %45 to i64
  %47 = icmp slt i64 %indvars.iv.next, %46
  br i1 %47, label %16, label %._crit_edge, !llvm.loop !4

._crit_edge:                                      ; preds = %16
  %.not = icmp eq i32 %1, 0
  br i1 %.not, label %79, label %48

._crit_edge.thread:                               ; preds = %2
  %.not59 = icmp eq i32 %1, 0
  br i1 %.not59, label %79, label %._crit_edge54

48:                                               ; preds = %._crit_edge
  %49 = icmp sgt i32 %45, 0
  br i1 %49, label %.lr.ph53, label %._crit_edge54

.lr.ph53:                                         ; preds = %48
  %50 = load ptr, ptr %9, align 8
  %51 = getelementptr inbounds nuw i8, ptr %6, i64 248
  br label %52

52:                                               ; preds = %.lr.ph53, %52
  %indvars.iv56 = phi i64 [ 0, %.lr.ph53 ], [ %indvars.iv.next57, %52 ]
  %.14650 = phi ptr [ %50, %.lr.ph53 ], [ %75, %52 ]
  %53 = getelementptr inbounds nuw i8, ptr %.14650, i64 12
  %54 = load i32, ptr %53, align 4
  %55 = load ptr, ptr %3, align 8
  %56 = getelementptr inbounds nuw i8, ptr %55, i64 32
  %57 = load ptr, ptr %56, align 8
  %58 = getelementptr inbounds nuw i8, ptr %.14650, i64 28
  %59 = load i32, ptr %58, align 4
  %60 = zext i32 %59 to i64
  %61 = getelementptr inbounds nuw i8, ptr %.14650, i64 8
  %62 = load i32, ptr %61, align 8
  %63 = sext i32 %62 to i64
  %64 = tail call i64 @jround_up(i64 noundef %60, i64 noundef %63) #5
  %65 = trunc i64 %64 to i32
  %66 = getelementptr inbounds nuw i8, ptr %.14650, i64 32
  %67 = load i32, ptr %66, align 8
  %68 = zext i32 %67 to i64
  %69 = load i32, ptr %53, align 4
  %70 = sext i32 %69 to i64
  %71 = tail call i64 @jround_up(i64 noundef %68, i64 noundef %70) #5
  %72 = trunc i64 %71 to i32
  %73 = tail call ptr %57(ptr noundef nonnull %0, i32 noundef 1, i32 noundef 0, i32 noundef %65, i32 noundef %72, i32 noundef %54) #5
  %74 = getelementptr inbounds nuw [10 x ptr], ptr %51, i64 0, i64 %indvars.iv56
  store ptr %73, ptr %74, align 8
  %indvars.iv.next57 = add nuw nsw i64 %indvars.iv56, 1
  %75 = getelementptr inbounds nuw i8, ptr %.14650, i64 96
  %76 = load i32, ptr %10, align 8
  %77 = sext i32 %76 to i64
  %78 = icmp slt i64 %indvars.iv.next57, %77
  br i1 %78, label %52, label %._crit_edge54, !llvm.loop !6

79:                                               ; preds = %._crit_edge.thread, %._crit_edge
  %80 = getelementptr inbounds nuw i8, ptr %6, i64 8
  store ptr @dummy_consume_data, ptr %80, align 8
  br label %._crit_edge54

._crit_edge54:                                    ; preds = %52, %48, %._crit_edge.thread, %79
  %.sink63 = phi i64 [ 24, %79 ], [ 8, %._crit_edge.thread ], [ 8, %48 ], [ 8, %52 ]
  %decompress_data.sink = phi ptr [ @decompress_data, %79 ], [ @consume_data, %._crit_edge.thread ], [ @consume_data, %48 ], [ @consume_data, %52 ]
  %.sink61 = phi i64 [ 248, %79 ], [ 24, %._crit_edge.thread ], [ 24, %48 ], [ 24, %52 ]
  %.sink = phi ptr [ null, %79 ], [ @output_data, %._crit_edge.thread ], [ @output_data, %48 ], [ @output_data, %52 ]
  %81 = getelementptr inbounds nuw i8, ptr %6, i64 %.sink63
  store ptr %decompress_data.sink, ptr %81, align 8
  %82 = getelementptr inbounds nuw i8, ptr %6, i64 %.sink61
  store ptr %.sink, ptr %82, align 8
  ret void
}